target datalayout = "e-m:e-p270:32:32-p271:32:32-p272:64:64-i64:64-i128:128-f80:128-n8:16:32:64-S128"
target triple = "x86_64-pc-linux-gnu"

%struct.pmix_list_t = type { %struct.pmix_object_t, %struct.pmix_list_item_t, i64 }
%struct.pmix_object_t = type { %union.pthread_mutex_t, ptr, i32, %struct.pmix_tma }
%union.pthread_mutex_t = type { %struct.__pthread_mutex_s }
%struct.__pthread_mutex_s = type { i32, i32, i32, i32, i32, i16, i16, %struct.__pthread_internal_list }
%struct.__pthread_internal_list = type { ptr, ptr }
%struct.pmix_tma = type { ptr, ptr, ptr, ptr, ptr, ptr, ptr, ptr }
%struct.pmix_list_item_t = type { %struct.pmix_object_t, ptr, ptr, i32 }
%struct.pmix_globals_t = type { i32, %struct.pmix_proc, %struct.pmix_value, %struct.pmix_value, ptr, i32, i32, ptr, i32, i32, i32, i32, i32, ptr, ptr, i32, %struct.pmix_events_t, i8, i8, %struct.timeval, %struct.pmix_list_t, %struct.pmix_pointer_array_t, i32, i32, %struct.pmix_hotel_t, i8, %struct.pmix_list_t, i8, i8, i8, i64, %struct.pmix_list_t, %struct.pmix_topology_t, %struct.pmix_cpuset_t, i8, i8, %struct.pmix_iof_flags_t, %struct.pmix_keyindex_t }
%struct.pmix_proc = type { [256 x i8], i32 }
%struct.pmix_value = type { i16, %union.anon.7 }
%union.anon.7 = type { %struct.pmix_envar_t }
%struct.pmix_envar_t = type { ptr, ptr, i8 }
%struct.pmix_events_t = type { %struct.pmix_object_t, i64, ptr, ptr, %struct.pmix_list_t, %struct.pmix_list_t, %struct.pmix_list_t, %struct.pmix_list_t }
%struct.timeval = type { i64, i64 }
%struct.pmix_pointer_array_t = type { %struct.pmix_object_t, i32, i32, i32, i32, i32, ptr, ptr }
%struct.pmix_hotel_t = type { %struct.pmix_object_t, i32, ptr, %struct.timeval, ptr, ptr, ptr, ptr, i32 }
%struct.pmix_topology_t = type { ptr, ptr }
%struct.pmix_cpuset_t = type { ptr, ptr }
%struct.pmix_iof_flags_t = type { i8, i8, i8, i8, i8, i8, i8, ptr, ptr, i8, i8, i8, i8, i8, i8 }
%struct.pmix_keyindex_t = type { %struct.pmix_object_t, ptr, i32 }
%struct.event = type { %struct.event_callback, %union.anon.0, i32, ptr, %union.anon.2, i16, i16, %struct.timeval }
%struct.event_callback = type { %struct.anon, i16, i8, i8, %union.anon, ptr }
%struct.anon = type { ptr, ptr }
%union.anon = type { ptr }
%union.anon.0 = type { %struct.anon.1 }
%struct.anon.1 = type { ptr, ptr }
%union.anon.2 = type { %struct.anon.3 }
%struct.anon.3 = type { %struct.anon.4, %struct.timeval }
%struct.anon.4 = type { ptr, ptr }
%struct.pmix_class_t = type { ptr, ptr, ptr, ptr, i32, i32, ptr, ptr, i64 }
%struct.pmix_peer_t = type { %struct.pmix_object_t, ptr, ptr, %struct.pmix_proc_type_t, i16, i32, i32, i32, i8, %struct.event, i8, %struct.event, i8, %struct.pmix_list_t, ptr, ptr, i32, %struct.pmix_epilog_t }
%struct.pmix_proc_type_t = type { i32, i8, i8, i8, i8 }
%struct.pmix_epilog_t = type { i32, i32, %struct.pmix_list_t, %struct.pmix_list_t, %struct.pmix_list_t }
%struct.pmix_namespace_t = type { %struct.pmix_list_item_t, ptr, %struct.anon.8, i32, i64, i64, i8, i8, ptr, i64, i64, %struct.pmix_list_t, %struct.pmix_personality_t, %struct.pmix_epilog_t, %struct.pmix_list_t, %struct.pmix_iof_flags_t, %struct.pmix_list_t }
%struct.anon.8 = type { i8, i8, i8 }
%struct.pmix_personality_t = type { i8, ptr, ptr, ptr }
%struct.pmix_rank_info_t = type { %struct.pmix_list_item_t, i32, %struct.pmix_name_t, i32, i32, i8, i32, ptr }
%struct.pmix_name_t = type { ptr, i32 }

@pmix_globals = external global %struct.pmix_globals_t, align 8
@pmix_class_init_epoch = external global i32, align 4
@pmix_rank_info_t_class = external global %struct.pmix_class_t, align 8
@pmix_namespace_t_class = external global %struct.pmix_class_t, align 8

; Function Attrs: inlinehint nounwind uwtable
define internal void @pmix_obj_run_constructors(ptr noundef %0) #6 {
  %2 = alloca ptr, align 8
  %3 = alloca ptr, align 8
  store ptr %0, ptr %2, align 8, !tbaa !116
  call void @llvm.lifetime.start.p0(i64 8, ptr %3) #13
  %4 = load ptr, ptr %2, align 8, !tbaa !116
  %5 = getelementptr inbounds nuw %struct.pmix_object_t, ptr %4, i32 0, i32 1
  %6 = load ptr, ptr %5, align 8, !tbaa !96
  %7 = getelementptr inbounds nuw %struct.pmix_class_t, ptr %6, i32 0, i32 6
  %8 = load ptr, ptr %7, align 8, !tbaa !129
  store ptr %8, ptr %3, align 8, !tbaa !110
  br label %9

9:                                                ; preds = %13, %1
  %10 = load ptr, ptr %3, align 8, !tbaa !110
  %11 = load ptr, ptr %10, align 8, !tbaa !110
  %12 = icmp ne ptr null, %11
  br i1 %12, label %13, label %19

13:                                               ; preds = %9
  %14 = load ptr, ptr %3, align 8, !tbaa !110
  %15 = load ptr, ptr %14, align 8, !tbaa !110
  %16 = load ptr, ptr %2, align 8, !tbaa !116
  call void %15(ptr noundef %16)
  %17 = load ptr, ptr %3, align 8, !tbaa !110
  %18 = getelementptr inbounds nuw ptr, ptr %17, i32 1
  store ptr %18, ptr %3, align 8, !tbaa !110
  br label %9, !llvm.loop !130

19:                                               ; preds = %9
  call void @llvm.lifetime.end.p0(i64 8, ptr %3) #13
  ret void
}

; Function Attrs: inlinehint nounwind uwtable
define internal ptr @pmix_tma_malloc(ptr noundef %0, i64 noundef %1) #6 {
  %3 = alloca ptr, align 8
  %4 = alloca ptr, align 8
  %5 = alloca i64, align 8
  store ptr %0, ptr %4, align 8, !tbaa !118
  store i64 %1, ptr %5, align 8, !tbaa !33
  %6 = load ptr, ptr %4, align 8, !tbaa !118
  %7 = icmp ne ptr null, %6
  br i1 %7, label %8, label %15

8:                                                ; preds = %2
  %9 = load ptr, ptr %4, align 8, !tbaa !118
  %10 = getelementptr inbounds nuw %struct.pmix_tma, ptr %9, i32 0, i32 0
  %11 = load ptr, ptr %10, align 8, !tbaa !203
  %12 = load ptr, ptr %4, align 8, !tbaa !118
  %13 = load i64, ptr %5, align 8, !tbaa !33
  %14 = call ptr %11(ptr noundef %12, i64 noundef %13)
  store ptr %14, ptr %3, align 8
  br label %18

15:                                               ; preds = %2
  %16 = load i64, ptr %5, align 8, !tbaa !33
  %17 = call noalias ptr @malloc(i64 noundef %16) #17
  store ptr %17, ptr %3, align 8
  br label %18

18:                                               ; preds = %15, %8
  %19 = load ptr, ptr %3, align 8
  ret ptr %19
}

; Function Attrs: inlinehint nounwind uwtable
define internal void @pmix_atomic_wmb() #6 {
  fence release
  ret void
}

; Function Attrs: inlinehint nounwind uwtable
define internal ptr @pmix_obj_new_tma(ptr noundef %0, ptr noundef %1) #6 {
  %3 = alloca ptr, align 8
  %4 = alloca ptr, align 8
  %5 = alloca ptr, align 8
  store ptr %0, ptr %3, align 8, !tbaa !136
  store ptr %1, ptr %4, align 8, !tbaa !118
  call void @llvm.lifetime.start.p0(i64 8, ptr %5) #13
  %6 = load ptr, ptr %4, align 8, !tbaa !118
  %7 = load ptr, ptr %3, align 8, !tbaa !136
  %8 = getelementptr inbounds nuw %struct.pmix_class_t, ptr %7, i32 0, i32 8
  %9 = load i64, ptr %8, align 8, !tbaa !137
  %10 = call ptr @pmix_tma_malloc(ptr noundef %6, i64 noundef %9)
  store ptr %10, ptr %5, align 8, !tbaa !116
  %11 = load i32, ptr @pmix_class_init_epoch, align 4, !tbaa !60
  %12 = load ptr, ptr %3, align 8, !tbaa !136
  %13 = getelementptr inbounds nuw %struct.pmix_class_t, ptr %12, i32 0, i32 4
  %14 = load i32, ptr %13, align 8, !tbaa !94
  %15 = icmp ne i32 %11, %14
  br i1 %15, label %16, label %18

16:                                               ; preds = %2
  %17 = load ptr, ptr %3, align 8, !tbaa !136
  call void @pmix_class_initialize(ptr noundef %17)
  br label %18

18:                                               ; preds = %16, %2
  %19 = load ptr, ptr %5, align 8, !tbaa !116
  %20 = icmp ne ptr null, %19
  br i1 %20, label %21, label %60

21:                                               ; preds = %18
  %22 = load ptr, ptr %5, align 8, !tbaa !116
  %23 = getelementptr inbounds nuw %struct.pmix_object_t, ptr %22, i32 0, i32 0
  %24 = call i32 @pthread_mutex_init(ptr noundef %23, ptr noundef null) #13
  %25 = load ptr, ptr %3, align 8, !tbaa !136
  %26 = load ptr, ptr %5, align 8, !tbaa !116
  %27 = getelementptr inbounds nuw %struct.pmix_object_t, ptr %26, i32 0, i32 1
  store ptr %25, ptr %27, align 8, !tbaa !96
  %28 = load ptr, ptr %5, align 8, !tbaa !116
  %29 = getelementptr inbounds nuw %struct.pmix_object_t, ptr %28, i32 0, i32 2
  store i32 1, ptr %29, align 8, !tbaa !97
  %30 = load ptr, ptr %4, align 8, !tbaa !118
  %31 = icmp eq ptr null, %30
  br i1 %31, label %32, label %54

32:                                               ; preds = %21
  %33 = load ptr, ptr %5, align 8, !tbaa !116
  %34 = getelementptr inbounds nuw %struct.pmix_object_t, ptr %33, i32 0, i32 3
  %35 = getelementptr inbounds nuw %struct.pmix_tma, ptr %34, i32 0, i32 0
  store ptr null, ptr %35, align 8, !tbaa !120
  %36 = load ptr, ptr %5, align 8, !tbaa !116
  %37 = getelementptr inbounds nuw %struct.pmix_object_t, ptr %36, i32 0, i32 3
  %38 = getelementptr inbounds nuw %struct.pmix_tma, ptr %37, i32 0, i32 1
  store ptr null, ptr %38, align 8, !tbaa !121
  %39 = load ptr, ptr %5, align 8, !tbaa !116
  %40 = getelementptr inbounds nuw %struct.pmix_object_t, ptr %39, i32 0, i32 3
  %41 = getelementptr inbounds nuw %struct.pmix_tma, ptr %40, i32 0, i32 2
  store ptr null, ptr %41, align 8, !tbaa !122
  %42 = load ptr, ptr %5, align 8, !tbaa !116
  %43 = getelementptr inbounds nuw %struct.pmix_object_t, ptr %42, i32 0, i32 3
  %44 = getelementptr inbounds nuw %struct.pmix_tma, ptr %43, i32 0, i32 3
  store ptr null, ptr %44, align 8, !tbaa !123
  %45 = load ptr, ptr %5, align 8, !tbaa !116
  %46 = getelementptr inbounds nuw %struct.pmix_object_t, ptr %45, i32 0, i32 3
  %47 = getelementptr inbounds nuw %struct.pmix_tma, ptr %46, i32 0, i32 5
  store ptr null, ptr %47, align 8, !tbaa !125
  %48 = load ptr, ptr %5, align 8, !tbaa !116
  %49 = getelementptr inbounds nuw %struct.pmix_object_t, ptr %48, i32 0, i32 3
  %50 = getelementptr inbounds nuw %struct.pmix_tma, ptr %49, i32 0, i32 6
  store ptr null, ptr %50, align 8, !tbaa !126
  %51 = load ptr, ptr %5, align 8, !tbaa !116
  %52 = getelementptr inbounds nuw %struct.pmix_object_t, ptr %51, i32 0, i32 3
  %53 = getelementptr inbounds nuw %struct.pmix_tma, ptr %52, i32 0, i32 7
  store ptr null, ptr %53, align 8, !tbaa !127
  br label %58

54:                                               ; preds = %21
  %55 = load ptr, ptr %5, align 8, !tbaa !116
  %56 = getelementptr inbounds nuw %struct.pmix_object_t, ptr %55, i32 0, i32 3
  %57 = load ptr, ptr %4, align 8, !tbaa !118
  call void @llvm.memcpy.p0.p0.i64(ptr align 8 %56, ptr align 8 %57, i64 64, i1 false), !tbaa.struct !128
  br label %58

58:                                               ; preds = %54, %32
  %59 = load ptr, ptr %5, align 8, !tbaa !116
  call void @pmix_obj_run_constructors(ptr noundef %59)
  br label %60

60:                                               ; preds = %58, %18
  %61 = load ptr, ptr %5, align 8, !tbaa !116
  call void @llvm.lifetime.end.p0(i64 8, ptr %5) #13
  ret ptr %61
}

; Function Attrs: nounwind uwtable
define void @pmix_ptl_base_complete_connection(ptr noundef %0, ptr noundef %1, i32 noundef %2) #0 {
  %4 = alloca ptr, align 8
  %5 = alloca ptr, align 8
  %6 = alloca i32, align 4
  store ptr %0, ptr %4, align 8, !tbaa !3
  store ptr %1, ptr %5, align 8, !tbaa !8
  store i32 %2, ptr %6, align 4, !tbaa !60
  store i8 1, ptr getelementptr inbounds nuw (%struct.pmix_globals_t, ptr @pmix_globals, i32 0, i32 17), align 8, !tbaa !165
  %7 = load ptr, ptr %4, align 8, !tbaa !3
  %8 = getelementptr inbounds nuw %struct.pmix_peer_t, ptr %7, i32 0, i32 2
  %9 = load ptr, ptr %8, align 8, !tbaa !166
  %10 = icmp eq ptr null, %9
  br i1 %10, label %11, label %15

11:                                               ; preds = %3
  %12 = call ptr @pmix_obj_new_tma(ptr noundef @pmix_rank_info_t_class, ptr noundef null)
  %13 = load ptr, ptr %4, align 8, !tbaa !3
  %14 = getelementptr inbounds nuw %struct.pmix_peer_t, ptr %13, i32 0, i32 2
  store ptr %12, ptr %14, align 8, !tbaa !166
  br label %15

15:                                               ; preds = %11, %3
  %16 = load ptr, ptr %4, align 8, !tbaa !3
  %17 = getelementptr inbounds nuw %struct.pmix_peer_t, ptr %16, i32 0, i32 1
  %18 = load ptr, ptr %17, align 8, !tbaa !55
  %19 = icmp eq ptr null, %18
  br i1 %19, label %20, label %24

20:                                               ; preds = %15
  %21 = call ptr @pmix_obj_new_tma(ptr noundef @pmix_namespace_t_class, ptr noundef null)
  %22 = load ptr, ptr %4, align 8, !tbaa !3
  %23 = getelementptr inbounds nuw %struct.pmix_peer_t, ptr %22, i32 0, i32 1
  store ptr %21, ptr %23, align 8, !tbaa !55
  br label %24

24:                                               ; preds = %20, %15
  %25 = load ptr, ptr %4, align 8, !tbaa !3
  %26 = getelementptr inbounds nuw %struct.pmix_peer_t, ptr %25, i32 0, i32 1
  %27 = load ptr, ptr %26, align 8, !tbaa !55
  %28 = getelementptr inbounds nuw %struct.pmix_namespace_t, ptr %27, i32 0, i32 1
  %29 = load ptr, ptr %28, align 8, !tbaa !167
  %30 = icmp ne ptr null, %29
  br i1 %30, label %31, label %37

31:                                               ; preds = %24
  %32 = load ptr, ptr %4, align 8, !tbaa !3
  %33 = getelementptr inbounds nuw %struct.pmix_peer_t, ptr %32, i32 0, i32 1
  %34 = load ptr, ptr %33, align 8, !tbaa !55
  %35 = getelementptr inbounds nuw %struct.pmix_namespace_t, ptr %34, i32 0, i32 1
  %36 = load ptr, ptr %35, align 8, !tbaa !167
  call void @free(ptr noundef %36) #13
  br label %37

37:                                               ; preds = %31, %24
  %38 = load ptr, ptr %5, align 8, !tbaa !8
  %39 = call noalias ptr @strdup(ptr noundef %38) #13
  %40 = load ptr, ptr %4, align 8, !tbaa !3
  %41 = getelementptr inbounds nuw %struct.pmix_peer_t, ptr %40, i32 0, i32 1
  %42 = load ptr, ptr %41, align 8, !tbaa !55
  %43 = getelementptr inbounds nuw %struct.pmix_namespace_t, ptr %42, i32 0, i32 1
  store ptr %39, ptr %43, align 8, !tbaa !167
  %44 = load ptr, ptr %4, align 8, !tbaa !3
  %45 = getelementptr inbounds nuw %struct.pmix_peer_t, ptr %44, i32 0, i32 2
  %46 = load ptr, ptr %45, align 8, !tbaa !166
  %47 = getelementptr inbounds nuw %struct.pmix_rank_info_t, ptr %46, i32 0, i32 2
  %48 = getelementptr inbounds nuw %struct.pmix_name_t, ptr %47, i32 0, i32 0
  %49 = load ptr, ptr %48, align 8, !tbaa !168
  %50 = icmp ne ptr null, %49
  br i1 %50, label %51, label %58

51:                                               ; preds = %37
  %52 = load ptr, ptr %4, align 8, !tbaa !3
  %53 = getelementptr inbounds nuw %struct.pmix_peer_t, ptr %52, i32 0, i32 2
  %54 = load ptr, ptr %53, align 8, !tbaa !166
  %55 = getelementptr inbounds nuw %struct.pmix_rank_info_t, ptr %54, i32 0, i32 2
  %56 = getelementptr inbounds nuw %struct.pmix_name_t, ptr %55, i32 0, i32 0
  %57 = load ptr, ptr %56, align 8, !tbaa !168
  call void @free(ptr noundef %57) #13
  br label %58

58:                                               ; preds = %51, %37
  %59 = load ptr, ptr %4, align 8, !tbaa !3
  %60 = getelementptr inbounds nuw %struct.pmix_peer_t, ptr %59, i32 0, i32 1
  %61 = load ptr, ptr %60, align 8, !tbaa !55
  %62 = getelementptr inbounds nuw %struct.pmix_namespace_t, ptr %61, i32 0, i32 1
  %63 = load ptr, ptr %62, align 8, !tbaa !167
  %64 = call noalias ptr @strdup(ptr noundef %63) #13
  %65 = load ptr, ptr %4, align 8, !tbaa !3
  %66 = getelementptr inbounds nuw %struct.pmix_peer_t, ptr %65, i32 0, i32 2
  %67 = load ptr, ptr %66, align 8, !tbaa !166
  %68 = getelementptr inbounds nuw %struct.pmix_rank_info_t, ptr %67, i32 0, i32 2
  %69 = getelementptr inbounds nuw %struct.pmix_name_t, ptr %68, i32 0, i32 0
  store ptr %64, ptr %69, align 8, !tbaa !168
  %70 = load i32, ptr %6, align 4, !tbaa !60
  %71 = load ptr, ptr %4, align 8, !tbaa !3
  %72 = getelementptr inbounds nuw %struct.pmix_peer_t, ptr %71, i32 0, i32 2
  %73 = load ptr, ptr %72, align 8, !tbaa !166
  %74 = getelementptr inbounds nuw %struct.pmix_rank_info_t, ptr %73, i32 0, i32 2
  %75 = getelementptr inbounds nuw %struct.pmix_name_t, ptr %74, i32 0, i32 1
  store i32 %70, ptr %75, align 8, !tbaa !171
  %76 = load ptr, ptr %4, align 8, !tbaa !3
  %77 = getelementptr inbounds nuw %struct.pmix_peer_t, ptr %76, i32 0, i32 7
  %78 = load i32, ptr %77, align 4, !tbaa !162
  %79 = call i32 @pmix_ptl_base_set_nonblocking(i32 noundef %78)
  %80 = load ptr, ptr %4, align 8, !tbaa !3
  %81 = getelementptr inbounds nuw %struct.pmix_peer_t, ptr %80, i32 0, i32 11
  %82 = load ptr, ptr getelementptr inbounds nuw (%struct.pmix_globals_t, ptr @pmix_globals, i32 0, i32 13), align 8, !tbaa !103
  %83 = load ptr, ptr %4, align 8, !tbaa !3
  %84 = getelementptr inbounds nuw %struct.pmix_peer_t, ptr %83, i32 0, i32 7
  %85 = load i32, ptr %84, align 4, !tbaa !162
  %86 = load ptr, ptr %4, align 8, !tbaa !3
  %87 = call i32 @pmix_event_assign(ptr noundef %81, ptr noundef %82, i32 noundef %85, i16 noundef signext 18, ptr noundef @pmix_ptl_base_recv_handler, ptr noundef %86)
  %88 = load ptr, ptr %4, align 8, !tbaa !3
  %89 = getelementptr inbounds nuw %struct.pmix_peer_t, ptr %88, i32 0, i32 12
  store i8 1, ptr %89, align 8, !tbaa !172
  call void @pmix_atomic_wmb()
  %90 = load ptr, ptr %4, align 8, !tbaa !3
  %91 = getelementptr inbounds nuw %struct.pmix_peer_t, ptr %90, i32 0, i32 11
  %92 = call i32 @event_add(ptr noundef %91, ptr noundef null)
  %93 = load ptr, ptr %4, align 8, !tbaa !3
  %94 = getelementptr inbounds nuw %struct.pmix_peer_t, ptr %93, i32 0, i32 9
  %95 = load ptr, ptr getelementptr inbounds nuw (%struct.pmix_globals_t, ptr @pmix_globals, i32 0, i32 13), align 8, !tbaa !103
  %96 = load ptr, ptr %4, align 8, !tbaa !3
  %97 = getelementptr inbounds nuw %struct.pmix_peer_t, ptr %96, i32 0, i32 7
  %98 = load i32, ptr %97, align 4, !tbaa !162
  %99 = load ptr, ptr %4, align 8, !tbaa !3
  %100 = call i32 @pmix_event_assign(ptr noundef %94, ptr noundef %95, i32 noundef %98, i16 noundef signext 20, ptr noundef @pmix_ptl_base_send_handler, ptr noundef %99)
  %101 = load ptr, ptr %4, align 8, !tbaa !3
  %102 = getelementptr inbounds nuw %struct.pmix_peer_t, ptr %101, i32 0, i32 10
  store i8 0, ptr %102, align 8, !tbaa !173
  ret void
}