; Function Attrs: nounwind uwtable
define void @pmix_ptl_base_complete_connection(ptr noundef %0, ptr noundef readonly captures(none) %1, i32 noundef %2) local_unnamed_addr #0 {
  store i8 1, ptr getelementptr inbounds nuw (i8, ptr @pmix_globals, i64 1632), align 8, !tbaa !143
  %4 = getelementptr inbounds nuw i8, ptr %0, i64 128
  %5 = load ptr, ptr %4, align 8, !tbaa !144
  %6 = icmp eq ptr %5, null
  br i1 %6, label %7, label %25

7:                                                ; preds = %3
  %8 = load i64, ptr getelementptr inbounds nuw (i8, ptr @pmix_rank_info_t_class, i64 56), align 8, !tbaa !99
  %9 = tail call noalias noundef ptr @malloc(i64 noundef %8) #23
  %10 = load i32, ptr @pmix_class_init_epoch, align 4, !tbaa !77
  %11 = load i32, ptr getelementptr inbounds nuw (i8, ptr @pmix_rank_info_t_class, i64 32), align 8, !tbaa !78
  %.not.i = icmp eq i32 %10, %11
  br i1 %.not.i, label %13, label %12

12:                                               ; preds = %7
  tail call void @pmix_class_initialize(ptr noundef nonnull @pmix_rank_info_t_class) #20
  br label %13

13:                                               ; preds = %12, %7
  %.not22.i = icmp eq ptr %9, null
  br i1 %.not22.i, label %pmix_obj_new_tma.exit, label %14

14:                                               ; preds = %13
  %15 = tail call i32 @pthread_mutex_init(ptr noundef nonnull %9, ptr noundef null) #20
  %16 = getelementptr inbounds nuw i8, ptr %9, i64 40
  store ptr @pmix_rank_info_t_class, ptr %16, align 8, !tbaa !80
  %17 = getelementptr inbounds nuw i8, ptr %9, i64 48
  store i32 1, ptr %17, align 8, !tbaa !81
  %18 = getelementptr inbounds nuw i8, ptr %9, i64 56
  %19 = getelementptr inbounds nuw i8, ptr %9, i64 96
  tail call void @llvm.memset.p0.i64(ptr noundef nonnull align 8 dereferenceable(32) %18, i8 0, i64 32, i1 false)
  tail call void @llvm.memset.p0.i64(ptr noundef nonnull align 8 dereferenceable(24) %19, i8 0, i64 24, i1 false)
  %20 = load ptr, ptr getelementptr inbounds nuw (i8, ptr @pmix_rank_info_t_class, i64 40), align 8, !tbaa !82
  %21 = load ptr, ptr %20, align 8, !tbaa !83
  %.not6.i.i = icmp eq ptr %21, null
  br i1 %.not6.i.i, label %pmix_obj_new_tma.exit, label %.lr.ph.i.i

.lr.ph.i.i:                                       ; preds = %14, %.lr.ph.i.i
  %22 = phi ptr [ %24, %.lr.ph.i.i ], [ %21, %14 ]
  %.07.i.i = phi ptr [ %23, %.lr.ph.i.i ], [ %20, %14 ]
  tail call void %22(ptr noundef nonnull %9) #20
  %23 = getelementptr inbounds nuw i8, ptr %.07.i.i, i64 8
  %24 = load ptr, ptr %23, align 8, !tbaa !83
  %.not.i.i = icmp eq ptr %24, null
  br i1 %.not.i.i, label %pmix_obj_new_tma.exit, label %.lr.ph.i.i, !llvm.loop !84

pmix_obj_new_tma.exit:                            ; preds = %.lr.ph.i.i, %13, %14
  store ptr %9, ptr %4, align 8, !tbaa !144
  br label %25

25:                                               ; preds = %pmix_obj_new_tma.exit, %3
  %26 = getelementptr inbounds nuw i8, ptr %0, i64 120
  %27 = load ptr, ptr %26, align 8, !tbaa !53
  %28 = icmp eq ptr %27, null
  br i1 %28, label %29, label %47

29:                                               ; preds = %25
  %30 = load i64, ptr getelementptr inbounds nuw (i8, ptr @pmix_namespace_t_class, i64 56), align 8, !tbaa !99
  %31 = tail call noalias noundef ptr @malloc(i64 noundef %30) #23
  %32 = load i32, ptr @pmix_class_init_epoch, align 4, !tbaa !77
  %33 = load i32, ptr getelementptr inbounds nuw (i8, ptr @pmix_namespace_t_class, i64 32), align 8, !tbaa !78
  %.not.i25 = icmp eq i32 %32, %33
  br i1 %.not.i25, label %35, label %34

34:                                               ; preds = %29
  tail call void @pmix_class_initialize(ptr noundef nonnull @pmix_namespace_t_class) #20
  br label %35

35:                                               ; preds = %34, %29
  %.not22.i26 = icmp eq ptr %31, null
  br i1 %.not22.i26, label %pmix_obj_new_tma.exit31, label %36

36:                                               ; preds = %35
  %37 = tail call i32 @pthread_mutex_init(ptr noundef nonnull %31, ptr noundef null) #20
  %38 = getelementptr inbounds nuw i8, ptr %31, i64 40
  store ptr @pmix_namespace_t_class, ptr %38, align 8, !tbaa !80
  %39 = getelementptr inbounds nuw i8, ptr %31, i64 48
  store i32 1, ptr %39, align 8, !tbaa !81
  %40 = getelementptr inbounds nuw i8, ptr %31, i64 56
  %41 = getelementptr inbounds nuw i8, ptr %31, i64 96
  tail call void @llvm.memset.p0.i64(ptr noundef nonnull align 8 dereferenceable(32) %40, i8 0, i64 32, i1 false)
  tail call void @llvm.memset.p0.i64(ptr noundef nonnull align 8 dereferenceable(24) %41, i8 0, i64 24, i1 false)
  %42 = load ptr, ptr getelementptr inbounds nuw (i8, ptr @pmix_namespace_t_class, i64 40), align 8, !tbaa !82
  %43 = load ptr, ptr %42, align 8, !tbaa !83
  %.not6.i.i27 = icmp eq ptr %43, null
  br i1 %.not6.i.i27, label %pmix_obj_new_tma.exit31, label %.lr.ph.i.i28

.lr.ph.i.i28:                                     ; preds = %36, %.lr.ph.i.i28
  %44 = phi ptr [ %46, %.lr.ph.i.i28 ], [ %43, %36 ]
  %.07.i.i29 = phi ptr [ %45, %.lr.ph.i.i28 ], [ %42, %36 ]
  tail call void %44(ptr noundef nonnull %31) #20
  %45 = getelementptr inbounds nuw i8, ptr %.07.i.i29, i64 8
  %46 = load ptr, ptr %45, align 8, !tbaa !83
  %.not.i.i30 = icmp eq ptr %46, null
  br i1 %.not.i.i30, label %pmix_obj_new_tma.exit31, label %.lr.ph.i.i28, !llvm.loop !84

pmix_obj_new_tma.exit31:                          ; preds = %.lr.ph.i.i28, %35, %36
  store ptr %31, ptr %26, align 8, !tbaa !53
  br label %47

47:                                               ; preds = %pmix_obj_new_tma.exit31, %25
  %48 = phi ptr [ %31, %pmix_obj_new_tma.exit31 ], [ %27, %25 ]
  %49 = getelementptr inbounds nuw i8, ptr %48, i64 144
  %50 = load ptr, ptr %49, align 8, !tbaa !145
  %.not = icmp eq ptr %50, null
  br i1 %.not, label %52, label %51

51:                                               ; preds = %47
  tail call void @free(ptr noundef nonnull %50) #20
  %.pre = load ptr, ptr %26, align 8, !tbaa !53
  br label %52

52:                                               ; preds = %51, %47
  %53 = phi ptr [ %.pre, %51 ], [ %48, %47 ]
  %54 = tail call noalias ptr @strdup(ptr noundef %1) #20
  %55 = getelementptr inbounds nuw i8, ptr %53, i64 144
  store ptr %54, ptr %55, align 8, !tbaa !145
  %56 = load ptr, ptr %4, align 8, !tbaa !144
  %57 = getelementptr inbounds nuw i8, ptr %56, i64 152
  %58 = load ptr, ptr %57, align 8, !tbaa !146
  %.not24 = icmp eq ptr %58, null
  br i1 %.not24, label %60, label %59

59:                                               ; preds = %52
  tail call void @free(ptr noundef nonnull %58) #20
  %.pre32 = load ptr, ptr %26, align 8, !tbaa !53
  %.phi.trans.insert = getelementptr inbounds nuw i8, ptr %.pre32, i64 144
  %.pre33 = load ptr, ptr %.phi.trans.insert, align 8, !tbaa !145
  %.pre34 = load ptr, ptr %4, align 8, !tbaa !144
  br label %60

60:                                               ; preds = %59, %52
  %61 = phi ptr [ %.pre34, %59 ], [ %56, %52 ]
  %62 = phi ptr [ %.pre33, %59 ], [ %54, %52 ]
  %63 = tail call noalias ptr @strdup(ptr noundef %62) #20
  %64 = getelementptr inbounds nuw i8, ptr %61, i64 152
  store ptr %63, ptr %64, align 8, !tbaa !146
  %65 = getelementptr inbounds nuw i8, ptr %61, i64 160
  store i32 %2, ptr %65, align 8, !tbaa !149
  %66 = getelementptr inbounds nuw i8, ptr %0, i64 156
  %67 = load i32, ptr %66, align 4, !tbaa !138
  %68 = tail call i32 @pmix_ptl_base_set_nonblocking(i32 noundef %67) #20
  %69 = getelementptr inbounds nuw i8, ptr %0, i64 304
  %70 = load ptr, ptr getelementptr inbounds nuw (i8, ptr @pmix_globals, i64 376), align 8, !tbaa !90
  %71 = load i32, ptr %66, align 4, !tbaa !138
  %72 = tail call i32 @pmix_event_assign(ptr noundef nonnull %69, ptr noundef %70, i32 noundef %71, i16 noundef signext 18, ptr noundef nonnull @pmix_ptl_base_recv_handler, ptr noundef nonnull %0) #20
  %73 = getelementptr inbounds nuw i8, ptr %0, i64 432
  store i8 1, ptr %73, align 8, !tbaa !150
  fence release
  %74 = tail call i32 @event_add(ptr noundef nonnull %69, ptr noundef null) #20
  %75 = getelementptr inbounds nuw i8, ptr %0, i64 168
  %76 = load ptr, ptr getelementptr inbounds nuw (i8, ptr @pmix_globals, i64 376), align 8, !tbaa !90
  %77 = load i32, ptr %66, align 4, !tbaa !138
  %78 = tail call i32 @pmix_event_assign(ptr noundef nonnull %75, ptr noundef %76, i32 noundef %77, i16 noundef signext 20, ptr noundef nonnull @pmix_ptl_base_send_handler, ptr noundef nonnull %0) #20
  %79 = getelementptr inbounds nuw i8, ptr %0, i64 296
  store i8 0, ptr %79, align 8, !tbaa !151
  ret void
}